; Function Attrs: mustprogress nofree nosync nounwind willreturn memory(readwrite, inaccessiblemem: none) uwtable
define internal noundef i32 @config_output(ptr noundef readonly captures(none) %0) #5 {
  %2 = load ptr, ptr %0, align 8, !tbaa !28
  %3 = getelementptr inbounds nuw i8, ptr %2, i64 72
  %4 = load ptr, ptr %3, align 8, !tbaa !4
  %5 = getelementptr inbounds nuw i8, ptr %0, i64 36
  %6 = load i32, ptr %5, align 4, !tbaa !37
  %switch.tableidx = add i32 %6, -1
  %7 = icmp ult i32 %switch.tableidx, 9
  %switch.maskindex = trunc i32 %switch.tableidx to i16
  %switch.shifted = lshr i16 495, %switch.maskindex
  %switch.lobit = trunc i16 %switch.shifted to i1
  %or.cond = select i1 %7, i1 %switch.lobit, i1 false
  br i1 %or.cond, label %switch.lookup, label %12

switch.lookup:                                    ; preds = %1
  %8 = zext nneg i32 %switch.tableidx to i64
  %switch.gep = getelementptr inbounds nuw [9 x ptr], ptr @switch.table.acrossfade_config_output.3, i64 0, i64 %8
  %switch.load = load ptr, ptr %switch.gep, align 8
  %9 = zext nneg i32 %switch.tableidx to i64
  %switch.gep31 = getelementptr inbounds nuw [9 x ptr], ptr @switch.table.acrossfade_config_output.4, i64 0, i64 %9
  %switch.load32 = load ptr, ptr %switch.gep31, align 8
  %10 = getelementptr inbounds nuw i8, ptr %4, i64 96
  store ptr %switch.load, ptr %10, align 8, !tbaa !38
  %11 = getelementptr inbounds nuw i8, ptr %4, i64 104
  store ptr %switch.load32, ptr %11, align 8, !tbaa !39
  br label %12

12:                                               ; preds = %1, %switch.lookup
  %13 = getelementptr inbounds nuw i8, ptr %4, i64 40
  %14 = load i64, ptr %13, align 8, !tbaa !40
  %.not = icmp eq i64 %14, 0
  br i1 %.not, label %21, label %15

15:                                               ; preds = %12
  %16 = getelementptr inbounds nuw i8, ptr %0, i64 64
  %17 = load i32, ptr %16, align 8, !tbaa !41
  %18 = sext i32 %17 to i64
  %19 = tail call i64 @av_rescale(i64 noundef %14, i64 noundef %18, i64 noundef 1000000) #12
  %20 = getelementptr inbounds nuw i8, ptr %4, i64 24
  store i64 %19, ptr %20, align 8, !tbaa !20
  br label %21

21:                                               ; preds = %15, %12
  store i64 0, ptr %13, align 8, !tbaa !40
  %22 = getelementptr inbounds nuw i8, ptr %4, i64 48
  %23 = load i64, ptr %22, align 8, !tbaa !42
  %.not30 = icmp eq i64 %23, 0
  br i1 %.not30, label %30, label %24

24:                                               ; preds = %21
  %25 = getelementptr inbounds nuw i8, ptr %0, i64 64
  %26 = load i32, ptr %25, align 8, !tbaa !41
  %27 = sext i32 %26 to i64
  %28 = tail call i64 @av_rescale(i64 noundef %23, i64 noundef %27, i64 noundef 1000000) #12
  %29 = getelementptr inbounds nuw i8, ptr %4, i64 32
  store i64 %28, ptr %29, align 8, !tbaa !24
  br label %30

30:                                               ; preds = %24, %21
  store i64 0, ptr %22, align 8, !tbaa !42
  ret i32 0
}